target datalayout = "e-m:e-p270:32:32-p271:32:32-p272:64:64-i64:64-i128:128-f80:128-n8:16:32:64-S128"
target triple = "x86_64-pc-linux-gnu"

%"class.cvc5::internal::theory::booleans::ProofCircuitPropagator" = type { ptr, ptr }
%"class.cvc5::internal::NodeTemplate.5" = type { ptr }
%"class.cvc5::internal::theory::booleans::ProofCircuitPropagatorBackward" = type <{ %"class.cvc5::internal::theory::booleans::ProofCircuitPropagator", %"class.cvc5::internal::NodeTemplate.5", i8, [7 x i8] }>

; Function Attrs: mustprogress nounwind uwtable
define linkonce_odr hidden void @_ZN4cvc58internal12NodeTemplateILb0EEC2ERKS2_(ptr noundef nonnull align 8 dereferenceable(8) %0, ptr noundef nonnull align 8 dereferenceable(8) %1) unnamed_addr #4 comdat align 2 {
  %3 = alloca ptr, align 8
  %4 = alloca ptr, align 8
  store ptr %0, ptr %3, align 8, !tbaa !57
  store ptr %1, ptr %4, align 8, !tbaa !57
  %5 = load ptr, ptr %3, align 8
  %6 = load ptr, ptr %4, align 8, !tbaa !57
  %7 = getelementptr inbounds nuw %"class.cvc5::internal::NodeTemplate.5", ptr %6, i32 0, i32 0
  %8 = load ptr, ptr %7, align 8, !tbaa !61
  %9 = getelementptr inbounds nuw %"class.cvc5::internal::NodeTemplate.5", ptr %5, i32 0, i32 0
  store ptr %8, ptr %9, align 8, !tbaa !61
  ret void
}

; Function Attrs: mustprogress nounwind uwtable
define hidden void @_ZN4cvc58internal6theory8booleans22ProofCircuitPropagatorC2EPNS0_11NodeManagerEPNS0_16ProofNodeManagerE(ptr noundef nonnull align 8 dereferenceable(16) %0, ptr noundef %1, ptr noundef %2) unnamed_addr #4 align 2 {
  %4 = alloca ptr, align 8
  %5 = alloca ptr, align 8
  %6 = alloca ptr, align 8
  store ptr %0, ptr %4, align 8, !tbaa !3
  store ptr %1, ptr %5, align 8, !tbaa !8
  store ptr %2, ptr %6, align 8, !tbaa !10
  %7 = load ptr, ptr %4, align 8
  %8 = getelementptr inbounds nuw %"class.cvc5::internal::theory::booleans::ProofCircuitPropagator", ptr %7, i32 0, i32 0
  %9 = load ptr, ptr %5, align 8, !tbaa !8
  store ptr %9, ptr %8, align 8, !tbaa !12
  %10 = getelementptr inbounds nuw %"class.cvc5::internal::theory::booleans::ProofCircuitPropagator", ptr %7, i32 0, i32 1
  %11 = load ptr, ptr %6, align 8, !tbaa !10
  store ptr %11, ptr %10, align 8, !tbaa !14
  ret void
}

; Function Attrs: mustprogress uwtable
define hidden void @_ZN4cvc58internal6theory8booleans30ProofCircuitPropagatorBackwardC2EPNS0_11NodeManagerEPNS0_16ProofNodeManagerENS0_12NodeTemplateILb0EEEb(ptr noundef nonnull align 8 dereferenceable(25) %0, ptr noundef %1, ptr noundef %2, ptr noundef %3, i1 noundef zeroext %4) unnamed_addr #5 align 2 {
  %6 = alloca ptr, align 8
  %7 = alloca ptr, align 8
  %8 = alloca ptr, align 8
  %9 = alloca ptr, align 8
  %10 = alloca i8, align 1
  store ptr %0, ptr %6, align 8, !tbaa !127
  store ptr %1, ptr %7, align 8, !tbaa !8
  store ptr %2, ptr %8, align 8, !tbaa !10
  store ptr %3, ptr %9, align 8, !tbaa !57
  %11 = zext i1 %4 to i8
  store i8 %11, ptr %10, align 1, !tbaa !37
  %12 = load ptr, ptr %6, align 8
  %13 = load ptr, ptr %7, align 8, !tbaa !8
  %14 = load ptr, ptr %8, align 8, !tbaa !10
  call void @_ZN4cvc58internal6theory8booleans22ProofCircuitPropagatorC2EPNS0_11NodeManagerEPNS0_16ProofNodeManagerE(ptr noundef nonnull align 8 dereferenceable(16) %12, ptr noundef %13, ptr noundef %14)
  %15 = getelementptr inbounds nuw %"class.cvc5::internal::theory::booleans::ProofCircuitPropagatorBackward", ptr %12, i32 0, i32 1
  call void @_ZN4cvc58internal12NodeTemplateILb0EEC2ERKS2_(ptr noundef nonnull align 8 dereferenceable(8) %15, ptr noundef nonnull align 8 dereferenceable(8) %3)
  %16 = getelementptr inbounds nuw %"class.cvc5::internal::theory::booleans::ProofCircuitPropagatorBackward", ptr %12, i32 0, i32 2
  %17 = load i8, ptr %10, align 1, !tbaa !37, !range !63, !noundef !64
  %18 = trunc i8 %17 to i1
  %19 = zext i1 %18 to i8
  store i8 %19, ptr %16, align 8, !tbaa !129
  ret void
}