; Function Attrs: mustprogress nofree norecurse nosync nounwind willreturn memory(argmem: readwrite) uwtable
define hidden void @_ZN4cvc58internal6theory8booleans30ProofCircuitPropagatorBackwardC2EPNS0_11NodeManagerEPNS0_16ProofNodeManagerENS0_12NodeTemplateILb0EEEb(ptr noundef nonnull writeonly align 8 captures(none) dereferenceable(25) initializes((0, 25)) %0, ptr noundef %1, ptr noundef %2, ptr noundef readonly captures(none) %3, i1 noundef zeroext %4) unnamed_addr #9 align 2 {
  %6 = zext i1 %4 to i8
  store ptr %1, ptr %0, align 8, !tbaa !3
  %7 = getelementptr inbounds nuw i8, ptr %0, i64 8
  store ptr %2, ptr %7, align 8, !tbaa !10
  %8 = getelementptr inbounds nuw i8, ptr %0, i64 16
  %9 = load ptr, ptr %3, align 8, !tbaa !31
  store ptr %9, ptr %8, align 8, !tbaa !31
  %10 = getelementptr inbounds nuw i8, ptr %0, i64 24
  store i8 %6, ptr %10, align 8, !tbaa !198
  ret void
}